; Function Attrs: nounwind uwtable
define void @lv_textarea_cursor_right(ptr noundef %0) local_unnamed_addr #0 {
  %.not = icmp eq ptr %0, null
  br i1 %.not, label %.preheader, label %lv_textarea_get_cursor_pos.exit

.preheader:                                       ; preds = %1, %.preheader
  br label %.preheader

lv_textarea_get_cursor_pos.exit:                  ; preds = %1
  %2 = getelementptr inbounds nuw i8, ptr %0, i64 116
  %3 = load i32, ptr %2, align 4, !tbaa !20
  %4 = add i32 %3, 1
  tail call void @lv_textarea_set_cursor_pos(ptr noundef nonnull %0, i32 noundef %4)
  ret void
}